target datalayout = "e-m:e-p270:32:32-p271:32:32-p272:64:64-i64:64-i128:128-f80:128-n8:16:32:64-S128"
target triple = "x86_64-pc-linux-gnu"

%struct._typeobject = type { %struct.PyVarObject, ptr, i64, i64, ptr, i64, ptr, ptr, ptr, ptr, ptr, ptr, ptr, ptr, ptr, ptr, ptr, ptr, ptr, i64, ptr, ptr, ptr, ptr, i64, ptr, ptr, ptr, ptr, ptr, ptr, ptr, ptr, ptr, i64, ptr, ptr, ptr, ptr, ptr, ptr, ptr, ptr, ptr, ptr, ptr, i32, ptr, ptr, i8, i16 }
%struct.PyVarObject = type { %struct._object, i64 }
%struct._object = type { %union.anon, ptr }
%union.anon = type { i64 }
%struct.PyTupleObject = type { %struct.PyVarObject, [1 x ptr] }

@.str.3 = private unnamed_addr constant [6 x i8] c"tuple\00", align 1

; Function Attrs: inlinehint nounwind uwtable
define internal i64 @Py_SIZE(ptr noundef %0) #2 {
  %2 = alloca ptr, align 8
  store ptr %0, ptr %2, align 8, !tbaa !10
  %3 = load ptr, ptr %2, align 8, !tbaa !10
  %4 = getelementptr inbounds nuw %struct.PyVarObject, ptr %3, i32 0, i32 1
  %5 = load i64, ptr %4, align 8, !tbaa !108
  ret i64 %5
}

; Function Attrs: inlinehint nounwind uwtable
define internal i64 @PyTuple_GET_SIZE(ptr noundef %0) #2 {
  %2 = alloca ptr, align 8
  %3 = alloca ptr, align 8
  store ptr %0, ptr %2, align 8, !tbaa !10
  call void @llvm.lifetime.start.p0(i64 8, ptr %3) #9
  %4 = load ptr, ptr %2, align 8, !tbaa !10
  store ptr %4, ptr %3, align 8, !tbaa !8
  %5 = load ptr, ptr %3, align 8, !tbaa !8
  %6 = call i64 @Py_SIZE(ptr noundef %5)
  call void @llvm.lifetime.end.p0(i64 8, ptr %3) #9
  ret i64 %6
}

; Function Attrs: nounwind uwtable
define internal ptr @tuple_new(ptr noundef %0, ptr noundef %1, ptr noundef %2) #0 {
  %4 = alloca ptr, align 8
  %5 = alloca ptr, align 8
  %6 = alloca ptr, align 8
  %7 = alloca ptr, align 8
  %8 = alloca ptr, align 8
  %9 = alloca ptr, align 8
  store ptr %0, ptr %4, align 8, !tbaa !99
  store ptr %1, ptr %5, align 8, !tbaa !10
  store ptr %2, ptr %6, align 8, !tbaa !10
  call void @llvm.lifetime.start.p0(i64 8, ptr %7) #9
  store ptr null, ptr %7, align 8, !tbaa !10
  call void @llvm.lifetime.start.p0(i64 8, ptr %8) #9
  store ptr @PyTuple_Type, ptr %8, align 8, !tbaa !99
  call void @llvm.lifetime.start.p0(i64 8, ptr %9) #9
  store ptr null, ptr %9, align 8, !tbaa !10
  %10 = load ptr, ptr %4, align 8, !tbaa !99
  %11 = load ptr, ptr %8, align 8, !tbaa !99
  %12 = icmp eq ptr %10, %11
  br i1 %12, label %21, label %13

13:                                               ; preds = %3
  %14 = load ptr, ptr %4, align 8, !tbaa !99
  %15 = getelementptr inbounds nuw %struct._typeobject, ptr %14, i32 0, i32 35
  %16 = load ptr, ptr %15, align 8, !tbaa !135
  %17 = load ptr, ptr %8, align 8, !tbaa !99
  %18 = getelementptr inbounds nuw %struct._typeobject, ptr %17, i32 0, i32 35
  %19 = load ptr, ptr %18, align 8, !tbaa !135
  %20 = icmp eq ptr %16, %19
  br i1 %20, label %21, label %29

21:                                               ; preds = %13, %3
  %22 = load ptr, ptr %6, align 8, !tbaa !10
  %23 = icmp eq ptr %22, null
  br i1 %23, label %29, label %24

24:                                               ; preds = %21
  %25 = load ptr, ptr %6, align 8, !tbaa !10
  %26 = call i32 @_PyArg_NoKeywords(ptr noundef @.str.3, ptr noundef %25)
  %27 = icmp ne i32 %26, 0
  br i1 %27, label %29, label %28

28:                                               ; preds = %24
  br label %57

29:                                               ; preds = %24, %21, %13
  %30 = load ptr, ptr %5, align 8, !tbaa !10
  %31 = call i64 @PyTuple_GET_SIZE(ptr noundef %30)
  %32 = icmp sle i64 0, %31
  br i1 %32, label %33, label %37

33:                                               ; preds = %29
  %34 = load ptr, ptr %5, align 8, !tbaa !10
  %35 = call i64 @PyTuple_GET_SIZE(ptr noundef %34)
  %36 = icmp sle i64 %35, 1
  br i1 %36, label %43, label %37

37:                                               ; preds = %33, %29
  %38 = load ptr, ptr %5, align 8, !tbaa !10
  %39 = call i64 @PyTuple_GET_SIZE(ptr noundef %38)
  %40 = call i32 @_PyArg_CheckPositional(ptr noundef @.str.3, i64 noundef %39, i64 noundef 0, i64 noundef 1)
  %41 = icmp ne i32 %40, 0
  br i1 %41, label %43, label %42

42:                                               ; preds = %37
  br label %57

43:                                               ; preds = %37, %33
  %44 = load ptr, ptr %5, align 8, !tbaa !10
  %45 = call i64 @PyTuple_GET_SIZE(ptr noundef %44)
  %46 = icmp slt i64 %45, 1
  br i1 %46, label %47, label %48

47:                                               ; preds = %43
  br label %53

48:                                               ; preds = %43
  %49 = load ptr, ptr %5, align 8, !tbaa !10
  %50 = getelementptr inbounds nuw %struct.PyTupleObject, ptr %49, i32 0, i32 1
  %51 = getelementptr [1 x ptr], ptr %50, i64 0, i64 0
  %52 = load ptr, ptr %51, align 8, !tbaa !10
  store ptr %52, ptr %9, align 8, !tbaa !10
  br label %53

53:                                               ; preds = %48, %47
  %54 = load ptr, ptr %4, align 8, !tbaa !99
  %55 = load ptr, ptr %9, align 8, !tbaa !10
  %56 = call ptr @tuple_new_impl(ptr noundef %54, ptr noundef %55)
  store ptr %56, ptr %7, align 8, !tbaa !10
  br label %57

57:                                               ; preds = %53, %42, %28
  %58 = load ptr, ptr %7, align 8, !tbaa !10
  call void @llvm.lifetime.end.p0(i64 8, ptr %9) #9
  call void @llvm.lifetime.end.p0(i64 8, ptr %8) #9
  call void @llvm.lifetime.end.p0(i64 8, ptr %7) #9
  ret ptr %58
}