; Function Attrs: nounwind uwtable
define internal ptr @tuple_new(ptr noundef %0, ptr noundef readonly captures(none) %1, ptr noundef %2) #0 {
  %4 = icmp eq ptr %0, @PyTuple_Type
  br i1 %4, label %11, label %5

5:                                                ; preds = %3
  %6 = getelementptr inbounds nuw i8, ptr %0, i64 296
  %7 = load ptr, ptr %6, align 8, !tbaa !128
  %8 = load ptr, ptr getelementptr inbounds nuw (i8, ptr @PyTuple_Type, i64 296), align 8, !tbaa !128
  %9 = icmp ne ptr %7, %8
  %10 = icmp eq ptr %2, null
  %or.cond = or i1 %10, %9
  br i1 %or.cond, label %14, label %12

11:                                               ; preds = %3
  %.old1 = icmp eq ptr %2, null
  br i1 %.old1, label %14, label %12

12:                                               ; preds = %5, %11
  %13 = tail call i32 @_PyArg_NoKeywords(ptr noundef nonnull @.str.3, ptr noundef nonnull %2) #9
  %.not = icmp eq i32 %13, 0
  br i1 %.not, label %25, label %14

14:                                               ; preds = %12, %11, %5
  %15 = getelementptr i8, ptr %1, i64 16
  %.val = load i64, ptr %15, align 8, !tbaa !107
  %or.cond21 = icmp ult i64 %.val, 2
  br i1 %or.cond21, label %18, label %16

16:                                               ; preds = %14
  %17 = tail call i32 @_PyArg_CheckPositional(ptr noundef nonnull @.str.3, i64 noundef %.val, i64 noundef 0, i64 noundef 1) #9
  %.not17 = icmp eq i32 %17, 0
  br i1 %.not17, label %25, label %thread-pre-split

thread-pre-split:                                 ; preds = %16
  %.val20.pr = load i64, ptr %15, align 8, !tbaa !107
  br label %18

18:                                               ; preds = %14, %thread-pre-split
  %.val20 = phi i64 [ %.val20.pr, %thread-pre-split ], [ %.val, %14 ]
  %19 = icmp slt i64 %.val20, 1
  br i1 %19, label %23, label %20

20:                                               ; preds = %18
  %21 = getelementptr inbounds nuw i8, ptr %1, i64 24
  %22 = load ptr, ptr %21, align 8, !tbaa !25
  br label %23

23:                                               ; preds = %18, %20
  %.0 = phi ptr [ null, %18 ], [ %22, %20 ]
  %24 = tail call fastcc ptr @tuple_new_impl(ptr noundef %0, ptr noundef %.0)
  br label %25

25:                                               ; preds = %16, %12, %23
  %.015 = phi ptr [ %24, %23 ], [ null, %16 ], [ null, %12 ]
  ret ptr %.015
}